target datalayout = "e-m:e-p270:32:32-p271:32:32-p272:64:64-i64:64-i128:128-f80:128-n8:16:32:64-S128"
target triple = "x86_64-pc-linux-gnu"

%struct.client = type { i64, i64, ptr, i8, i8, i8, i8, i32, ptr, ptr, ptr, ptr, ptr, i64, i64, i32, ptr, i32, i32, ptr, i64, ptr, ptr, ptr, ptr, ptr, i32, i32, i64, ptr, i64, ptr, i64, i64, i64, i32, ptr, i64, i64, i32, i32, i32, i32, i64, i64, ptr, i64, i64, i64, i64, i64, i64, i64, i64, [41 x i8], i32, ptr, i32, i32, i64, %struct.multiState, %struct.blockingState, i64, ptr, ptr, ptr, ptr, ptr, ptr, ptr, ptr, ptr, ptr, ptr, ptr, ptr, ptr, i64, ptr, i64, i32, ptr, ptr, ptr, i64, %struct.listNode, i64, i64, i32, i64, ptr }
%struct.multiState = type { ptr, i32, i32, i32, i64, i32 }
%struct.blockingState = type { i32, i64, i32, ptr, i32, i32, i64, ptr, ptr, i64 }
%struct.listNode = type { ptr, ptr, ptr }

; Function Attrs: nounwind uwtable
define dso_local void @setDeferredMapLen(ptr noundef %0, ptr noundef %1, i64 noundef %2) #0 {
  %4 = alloca ptr, align 8
  %5 = alloca ptr, align 8
  %6 = alloca i64, align 8
  %7 = alloca i32, align 4
  store ptr %0, ptr %4, align 8, !tbaa !24
  store ptr %1, ptr %5, align 8, !tbaa !10
  store i64 %2, ptr %6, align 8, !tbaa !20
  call void @llvm.lifetime.start.p0(i64 4, ptr %7) #16
  %8 = load ptr, ptr %4, align 8, !tbaa !24
  %9 = getelementptr inbounds nuw %struct.client, ptr %8, i32 0, i32 7
  %10 = load i32, ptr %9, align 4, !tbaa !74
  %11 = icmp eq i32 %10, 2
  %12 = select i1 %11, i32 42, i32 37
  store i32 %12, ptr %7, align 4, !tbaa !19
  %13 = load ptr, ptr %4, align 8, !tbaa !24
  %14 = getelementptr inbounds nuw %struct.client, ptr %13, i32 0, i32 7
  %15 = load i32, ptr %14, align 4, !tbaa !74
  %16 = icmp eq i32 %15, 2
  br i1 %16, label %17, label %20

17:                                               ; preds = %3
  %18 = load i64, ptr %6, align 8, !tbaa !20
  %19 = mul nsw i64 %18, 2
  store i64 %19, ptr %6, align 8, !tbaa !20
  br label %20

20:                                               ; preds = %17, %3
  %21 = load ptr, ptr %4, align 8, !tbaa !24
  %22 = load ptr, ptr %5, align 8, !tbaa !10
  %23 = load i64, ptr %6, align 8, !tbaa !20
  %24 = load i32, ptr %7, align 4, !tbaa !19
  %25 = trunc i32 %24 to i8
  call void @setDeferredAggregateLen(ptr noundef %21, ptr noundef %22, i64 noundef %23, i8 noundef signext %25)
  call void @llvm.lifetime.end.p0(i64 4, ptr %7) #16
  ret void
}