; Function Attrs: nounwind uwtable
define dso_local void @setDeferredMapLen(ptr noundef %0, ptr noundef %1, i64 noundef %2) local_unnamed_addr #0 {
  %4 = getelementptr inbounds nuw i8, ptr %0, i64 28
  %5 = load i32, ptr %4, align 4, !tbaa !74
  %6 = icmp eq i32 %5, 2
  %spec.select = select i1 %6, i8 42, i8 37
  %7 = zext i1 %6 to i64
  %spec.select6 = shl nsw i64 %2, %7
  tail call void @setDeferredAggregateLen(ptr noundef %0, ptr noundef %1, i64 noundef %spec.select6, i8 noundef signext %spec.select)
  ret void
}